; Function Attrs: mustprogress nounwind uwtable
define void @_ZN6casadi4QrqpD2Ev(ptr noundef nonnull align 8 dereferenceable(1660) %0) unnamed_addr #4 align 2 personality ptr @__gxx_personality_v0 {
  store ptr getelementptr inbounds ({ [118 x ptr], [3 x ptr] }, ptr @_ZTVN6casadi4QrqpE, i64 0, i32 0, i64 2), ptr %0, align 8
  %2 = getelementptr inbounds i8, ptr %0, i64 1304
  store ptr getelementptr inbounds ({ [118 x ptr], [3 x ptr] }, ptr @_ZTVN6casadi4QrqpE, i64 0, i32 1, i64 2), ptr %2, align 8
  invoke void @_ZN6casadi13ProtoFunction9clear_memEv(ptr noundef nonnull align 8 dereferenceable(168) %0)
          to label %3 unwind label %14

3:                                                ; preds = %1
  %4 = getelementptr inbounds i8, ptr %0, i64 1632
  %5 = load ptr, ptr %4, align 8
  %.not.i.i.i = icmp eq ptr %5, null
  br i1 %.not.i.i.i, label %_ZNSt6vectorIxSaIxEED2Ev.exit, label %6

6:                                                ; preds = %3
  tail call void @_ZdlPv(ptr noundef nonnull %5) #23
  br label %_ZNSt6vectorIxSaIxEED2Ev.exit

_ZNSt6vectorIxSaIxEED2Ev.exit:                    ; preds = %3, %6
  %7 = getelementptr inbounds i8, ptr %0, i64 1608
  %8 = load ptr, ptr %7, align 8
  %.not.i.i.i1 = icmp eq ptr %8, null
  br i1 %.not.i.i.i1, label %_ZNSt6vectorIxSaIxEED2Ev.exit2, label %9

9:                                                ; preds = %_ZNSt6vectorIxSaIxEED2Ev.exit
  tail call void @_ZdlPv(ptr noundef nonnull %8) #23
  br label %_ZNSt6vectorIxSaIxEED2Ev.exit2

_ZNSt6vectorIxSaIxEED2Ev.exit2:                   ; preds = %_ZNSt6vectorIxSaIxEED2Ev.exit, %9
  %10 = getelementptr inbounds i8, ptr %0, i64 1600
  tail call void @_ZN6casadi12SharedObjectD2Ev(ptr noundef nonnull align 8 dereferenceable(8) %10) #22
  %11 = getelementptr inbounds i8, ptr %0, i64 1592
  tail call void @_ZN6casadi12SharedObjectD2Ev(ptr noundef nonnull align 8 dereferenceable(8) %11) #22
  %12 = getelementptr inbounds i8, ptr %0, i64 1584
  tail call void @_ZN6casadi12SharedObjectD2Ev(ptr noundef nonnull align 8 dereferenceable(8) %12) #22
  %13 = getelementptr inbounds i8, ptr %0, i64 1576
  tail call void @_ZN6casadi12SharedObjectD2Ev(ptr noundef nonnull align 8 dereferenceable(8) %13) #22
  tail call void @_ZN6casadi5ConicD2Ev(ptr noundef nonnull align 8 dereferenceable(1472) %0) #22
  ret void

14:                                               ; preds = %1
  %15 = landingpad { ptr, i32 }
          catch ptr null
  %16 = extractvalue { ptr, i32 } %15, 0
  tail call void @__clang_call_terminate(ptr %16) #25
  unreachable
}